; Function Attrs: mustprogress nofree nounwind willreturn memory(read, inaccessiblemem: none) uwtable
define internal fastcc { ptr, ptr } @"_ZSt8mismatchIPPN5clang14IdentifierInfoES3_ZL29isBetterMultiversionCandidateRKNS0_17OverloadCandidateES6_E3$_0ESt4pairIT_T0_ES9_S9_SA_T1_"(ptr noundef %0, ptr noundef readnone %1, ptr noundef %2) unnamed_addr #19 {
  %.not10.i = icmp eq ptr %0, %1
  br i1 %.not10.i, label %"_ZSt10__mismatchIPPN5clang14IdentifierInfoES3_N9__gnu_cxx5__ops15_Iter_comp_iterIZL29isBetterMultiversionCandidateRKNS0_17OverloadCandidateES9_E3$_0EEESt4pairIT_T0_ESD_SD_SE_T1_.exit", label %.lr.ph.i

.lr.ph.i:                                         ; preds = %3, %"_ZN9__gnu_cxx5__ops15_Iter_comp_iterIZL29isBetterMultiversionCandidateRKN5clang17OverloadCandidateES5_E3$_0EclIPPNS2_14IdentifierInfoESB_EEbT_T0_.exit.thread.i"
  %storemerge12.i = phi ptr [ %16, %"_ZN9__gnu_cxx5__ops15_Iter_comp_iterIZL29isBetterMultiversionCandidateRKN5clang17OverloadCandidateES5_E3$_0EclIPPNS2_14IdentifierInfoESB_EEbT_T0_.exit.thread.i" ], [ %2, %3 ]
  %.011.i = phi ptr [ %15, %"_ZN9__gnu_cxx5__ops15_Iter_comp_iterIZL29isBetterMultiversionCandidateRKN5clang17OverloadCandidateES5_E3$_0EclIPPNS2_14IdentifierInfoESB_EEbT_T0_.exit.thread.i" ], [ %0, %3 ]
  %.val.i = load ptr, ptr %.011.i, align 8
  %.val1.i = load ptr, ptr %storemerge12.i, align 8
  %4 = getelementptr i8, ptr %.val.i, i64 16
  %.val.val.i = load ptr, ptr %4, align 8
  %5 = getelementptr i8, ptr %.val1.i, i64 16
  %.val1.val.i = load ptr, ptr %5, align 8
  %6 = getelementptr inbounds i8, ptr %.val.val.i, i64 16
  %7 = load i64, ptr %.val.val.i, align 8
  %8 = and i64 %7, 4294967295
  %9 = getelementptr inbounds i8, ptr %.val1.val.i, i64 16
  %10 = load i64, ptr %.val1.val.i, align 8
  %11 = and i64 %10, 4294967295
  %.not.i.i.i.i = icmp eq i64 %8, %11
  br i1 %.not.i.i.i.i, label %12, label %"_ZSt10__mismatchIPPN5clang14IdentifierInfoES3_N9__gnu_cxx5__ops15_Iter_comp_iterIZL29isBetterMultiversionCandidateRKNS0_17OverloadCandidateES9_E3$_0EEESt4pairIT_T0_ESD_SD_SE_T1_.exit"

12:                                               ; preds = %.lr.ph.i
  %13 = icmp eq i64 %8, 0
  br i1 %13, label %"_ZN9__gnu_cxx5__ops15_Iter_comp_iterIZL29isBetterMultiversionCandidateRKN5clang17OverloadCandidateES5_E3$_0EclIPPNS2_14IdentifierInfoESB_EEbT_T0_.exit.thread.i", label %"_ZN9__gnu_cxx5__ops15_Iter_comp_iterIZL29isBetterMultiversionCandidateRKN5clang17OverloadCandidateES5_E3$_0EclIPPNS2_14IdentifierInfoESB_EEbT_T0_.exit.i"

"_ZN9__gnu_cxx5__ops15_Iter_comp_iterIZL29isBetterMultiversionCandidateRKN5clang17OverloadCandidateES5_E3$_0EclIPPNS2_14IdentifierInfoESB_EEbT_T0_.exit.i": ; preds = %12
  %bcmp.i.i.i.i = tail call i32 @bcmp(ptr nonnull readonly %6, ptr nonnull readonly %9, i64 %8)
  %14 = icmp eq i32 %bcmp.i.i.i.i, 0
  br i1 %14, label %"_ZN9__gnu_cxx5__ops15_Iter_comp_iterIZL29isBetterMultiversionCandidateRKN5clang17OverloadCandidateES5_E3$_0EclIPPNS2_14IdentifierInfoESB_EEbT_T0_.exit.thread.i", label %"_ZSt10__mismatchIPPN5clang14IdentifierInfoES3_N9__gnu_cxx5__ops15_Iter_comp_iterIZL29isBetterMultiversionCandidateRKNS0_17OverloadCandidateES9_E3$_0EEESt4pairIT_T0_ESD_SD_SE_T1_.exit"

"_ZN9__gnu_cxx5__ops15_Iter_comp_iterIZL29isBetterMultiversionCandidateRKN5clang17OverloadCandidateES5_E3$_0EclIPPNS2_14IdentifierInfoESB_EEbT_T0_.exit.thread.i": ; preds = %"_ZN9__gnu_cxx5__ops15_Iter_comp_iterIZL29isBetterMultiversionCandidateRKN5clang17OverloadCandidateES5_E3$_0EclIPPNS2_14IdentifierInfoESB_EEbT_T0_.exit.i", %12
  %15 = getelementptr inbounds i8, ptr %.011.i, i64 8
  %16 = getelementptr inbounds i8, ptr %storemerge12.i, i64 8
  %.not.i = icmp eq ptr %15, %1
  br i1 %.not.i, label %"_ZSt10__mismatchIPPN5clang14IdentifierInfoES3_N9__gnu_cxx5__ops15_Iter_comp_iterIZL29isBetterMultiversionCandidateRKNS0_17OverloadCandidateES9_E3$_0EEESt4pairIT_T0_ESD_SD_SE_T1_.exit", label %.lr.ph.i, !llvm.loop !411

"_ZSt10__mismatchIPPN5clang14IdentifierInfoES3_N9__gnu_cxx5__ops15_Iter_comp_iterIZL29isBetterMultiversionCandidateRKNS0_17OverloadCandidateES9_E3$_0EEESt4pairIT_T0_ESD_SD_SE_T1_.exit": ; preds = %.lr.ph.i, %"_ZN9__gnu_cxx5__ops15_Iter_comp_iterIZL29isBetterMultiversionCandidateRKN5clang17OverloadCandidateES5_E3$_0EclIPPNS2_14IdentifierInfoESB_EEbT_T0_.exit.i", %"_ZN9__gnu_cxx5__ops15_Iter_comp_iterIZL29isBetterMultiversionCandidateRKN5clang17OverloadCandidateES5_E3$_0EclIPPNS2_14IdentifierInfoESB_EEbT_T0_.exit.thread.i", %3
  %.0.lcssa.i = phi ptr [ %0, %3 ], [ %.011.i, %"_ZN9__gnu_cxx5__ops15_Iter_comp_iterIZL29isBetterMultiversionCandidateRKN5clang17OverloadCandidateES5_E3$_0EclIPPNS2_14IdentifierInfoESB_EEbT_T0_.exit.i" ], [ %15, %"_ZN9__gnu_cxx5__ops15_Iter_comp_iterIZL29isBetterMultiversionCandidateRKN5clang17OverloadCandidateES5_E3$_0EclIPPNS2_14IdentifierInfoESB_EEbT_T0_.exit.thread.i" ], [ %.011.i, %.lr.ph.i ]
  %storemerge.lcssa.i = phi ptr [ %2, %3 ], [ %storemerge12.i, %"_ZN9__gnu_cxx5__ops15_Iter_comp_iterIZL29isBetterMultiversionCandidateRKN5clang17OverloadCandidateES5_E3$_0EclIPPNS2_14IdentifierInfoESB_EEbT_T0_.exit.i" ], [ %16, %"_ZN9__gnu_cxx5__ops15_Iter_comp_iterIZL29isBetterMultiversionCandidateRKN5clang17OverloadCandidateES5_E3$_0EclIPPNS2_14IdentifierInfoESB_EEbT_T0_.exit.thread.i" ], [ %storemerge12.i, %.lr.ph.i ]
  %.fca.0.insert.i = insertvalue { ptr, ptr } poison, ptr %.0.lcssa.i, 0
  %.fca.1.insert.i = insertvalue { ptr, ptr } %.fca.0.insert.i, ptr %storemerge.lcssa.i, 1
  ret { ptr, ptr } %.fca.1.insert.i
}